target datalayout = "e-m:e-p270:32:32-p271:32:32-p272:64:64-i64:64-i128:128-f80:128-n8:16:32:64-S128"
target triple = "x86_64-pc-linux-gnu"

%struct.pmix_class_t = type { ptr, ptr, ptr, ptr, i32, i32, ptr, ptr, i64 }
%struct.pmix_object_t = type { %union.pthread_mutex_t, ptr, i32, %struct.pmix_tma }
%union.pthread_mutex_t = type { %struct.__pthread_mutex_s }
%struct.__pthread_mutex_s = type { i32, i32, i32, i32, i32, i16, i16, %struct.__pthread_internal_list }
%struct.__pthread_internal_list = type { ptr, ptr }
%struct.pmix_tma = type { ptr, ptr, ptr, ptr, ptr, ptr, ptr, ptr }

@alias_hash_table = internal global ptr null, align 8
@.str.2 = private unnamed_addr constant [21 x i8] c"pthread_mutex_lock()\00", align 1

; Function Attrs: inlinehint nounwind uwtable
define internal void @pmix_tma_free(ptr noundef %0, ptr noundef %1) #4 {
  %3 = alloca ptr, align 8
  %4 = alloca ptr, align 8
  store ptr %0, ptr %3, align 8, !tbaa !37
  store ptr %1, ptr %4, align 8, !tbaa !33
  %5 = load ptr, ptr %3, align 8, !tbaa !37
  %6 = icmp ne ptr null, %5
  br i1 %6, label %7, label %13

7:                                                ; preds = %2
  %8 = load ptr, ptr %3, align 8, !tbaa !37
  %9 = getelementptr inbounds nuw %struct.pmix_tma, ptr %8, i32 0, i32 5
  %10 = load ptr, ptr %9, align 8, !tbaa !39
  %11 = load ptr, ptr %3, align 8, !tbaa !37
  %12 = load ptr, ptr %4, align 8, !tbaa !33
  call void %10(ptr noundef %11, ptr noundef %12)
  br label %15

13:                                               ; preds = %2
  %14 = load ptr, ptr %4, align 8, !tbaa !33
  call void @free(ptr noundef %14) #12
  br label %15

15:                                               ; preds = %13, %7
  ret void
}

; Function Attrs: inlinehint nounwind uwtable
define internal void @pmix_obj_run_destructors(ptr noundef %0) #4 {
  %2 = alloca ptr, align 8
  %3 = alloca ptr, align 8
  store ptr %0, ptr %2, align 8, !tbaa !21
  call void @llvm.lifetime.start.p0(i64 8, ptr %3) #12
  %4 = load ptr, ptr %2, align 8, !tbaa !21
  %5 = getelementptr inbounds nuw %struct.pmix_object_t, ptr %4, i32 0, i32 1
  %6 = load ptr, ptr %5, align 8, !tbaa !15
  %7 = getelementptr inbounds nuw %struct.pmix_class_t, ptr %6, i32 0, i32 7
  %8 = load ptr, ptr %7, align 8, !tbaa !35
  store ptr %8, ptr %3, align 8, !tbaa !33
  br label %9

9:                                                ; preds = %13, %1
  %10 = load ptr, ptr %3, align 8, !tbaa !33
  %11 = load ptr, ptr %10, align 8, !tbaa !33
  %12 = icmp ne ptr null, %11
  br i1 %12, label %13, label %19

13:                                               ; preds = %9
  %14 = load ptr, ptr %3, align 8, !tbaa !33
  %15 = load ptr, ptr %14, align 8, !tbaa !33
  %16 = load ptr, ptr %2, align 8, !tbaa !21
  call void %15(ptr noundef %16)
  %17 = load ptr, ptr %3, align 8, !tbaa !33
  %18 = getelementptr inbounds nuw ptr, ptr %17, i32 1
  store ptr %18, ptr %3, align 8, !tbaa !33
  br label %9, !llvm.loop !36

19:                                               ; preds = %9
  call void @llvm.lifetime.end.p0(i64 8, ptr %3) #12
  ret void
}

; Function Attrs: alwaysinline nounwind uwtable
define internal i32 @pmix_obj_update(ptr noundef %0, i32 noundef %1) #3 {
  %3 = alloca ptr, align 8
  %4 = alloca i32, align 4
  %5 = alloca i32, align 4
  store ptr %0, ptr %3, align 8, !tbaa !21
  store i32 %1, ptr %4, align 4, !tbaa !8
  call void @llvm.lifetime.start.p0(i64 4, ptr %5) #12
  %6 = load ptr, ptr %3, align 8, !tbaa !21
  %7 = getelementptr inbounds nuw %struct.pmix_object_t, ptr %6, i32 0, i32 0
  %8 = call i32 @pthread_mutex_lock(ptr noundef %7) #12
  store i32 %8, ptr %5, align 4, !tbaa !8
  %9 = load i32, ptr %5, align 4, !tbaa !8
  %10 = icmp eq i32 %9, 35
  br i1 %10, label %11, label %14

11:                                               ; preds = %2
  %12 = load i32, ptr %5, align 4, !tbaa !8
  %13 = call ptr @__errno_location() #13
  store i32 %12, ptr %13, align 4, !tbaa !8
  call void @perror(ptr noundef @.str.2)
  call void @abort() #14
  unreachable

14:                                               ; preds = %2
  %15 = load i32, ptr %4, align 4, !tbaa !8
  %16 = load ptr, ptr %3, align 8, !tbaa !21
  %17 = getelementptr inbounds nuw %struct.pmix_object_t, ptr %16, i32 0, i32 2
  %18 = load i32, ptr %17, align 8, !tbaa !18
  %19 = add nsw i32 %18, %15
  store i32 %19, ptr %17, align 8, !tbaa !18
  store i32 %19, ptr %5, align 4, !tbaa !8
  %20 = load ptr, ptr %3, align 8, !tbaa !21
  %21 = getelementptr inbounds nuw %struct.pmix_object_t, ptr %20, i32 0, i32 0
  %22 = call i32 @pthread_mutex_unlock(ptr noundef %21) #12
  %23 = load i32, ptr %5, align 4, !tbaa !8
  call void @llvm.lifetime.end.p0(i64 4, ptr %5) #12
  ret i32 %23
}

; Function Attrs: nounwind uwtable
define void @pmix_mca_base_alias_cleanup() #0 {
  %1 = alloca ptr, align 8
  %2 = alloca ptr, align 8
  %3 = alloca i64, align 8
  %4 = alloca ptr, align 8
  %5 = alloca ptr, align 8
  %6 = alloca ptr, align 8
  %7 = load ptr, ptr @alias_hash_table, align 8, !tbaa !31
  %8 = icmp ne ptr %7, null
  br i1 %8, label %10, label %9

9:                                                ; preds = %0
  br label %63

10:                                               ; preds = %0
  call void @llvm.lifetime.start.p0(i64 8, ptr %1) #12
  call void @llvm.lifetime.start.p0(i64 8, ptr %2) #12
  call void @llvm.lifetime.start.p0(i64 8, ptr %3) #12
  call void @llvm.lifetime.start.p0(i64 8, ptr %4) #12
  store ptr null, ptr %4, align 8, !tbaa !33
  br label %11

11:                                               ; preds = %39, %10
  %12 = load ptr, ptr @alias_hash_table, align 8, !tbaa !31
  %13 = load ptr, ptr %4, align 8, !tbaa !33
  %14 = call i32 @pmix_hash_table_get_next_key_ptr(ptr noundef %12, ptr noundef %1, ptr noundef %3, ptr noundef %2, ptr noundef %13, ptr noundef %4)
  %15 = icmp eq i32 0, %14
  br i1 %15, label %17, label %16

16:                                               ; preds = %11
  call void @llvm.lifetime.end.p0(i64 8, ptr %4) #12
  br label %40

17:                                               ; preds = %11
  br label %18

18:                                               ; preds = %17
  call void @llvm.lifetime.start.p0(i64 8, ptr %5) #12
  %19 = load ptr, ptr %2, align 8, !tbaa !21
  store ptr %19, ptr %5, align 8, !tbaa !21
  %20 = load ptr, ptr %5, align 8, !tbaa !21
  %21 = call i32 @pmix_obj_update(ptr noundef %20, i32 noundef -1)
  %22 = icmp eq i32 0, %21
  br i1 %22, label %23, label %37

23:                                               ; preds = %18
  %24 = load ptr, ptr %5, align 8, !tbaa !21
  call void @pmix_obj_run_destructors(ptr noundef %24)
  %25 = load ptr, ptr %5, align 8, !tbaa !21
  %26 = getelementptr inbounds nuw %struct.pmix_object_t, ptr %25, i32 0, i32 3
  %27 = getelementptr inbounds nuw %struct.pmix_tma, ptr %26, i32 0, i32 5
  %28 = load ptr, ptr %27, align 8, !tbaa !23
  %29 = icmp ne ptr null, %28
  br i1 %29, label %30, label %34

30:                                               ; preds = %23
  %31 = load ptr, ptr %5, align 8, !tbaa !21
  %32 = getelementptr inbounds nuw %struct.pmix_object_t, ptr %31, i32 0, i32 3
  %33 = load ptr, ptr %2, align 8, !tbaa !21
  call void @pmix_tma_free(ptr noundef %32, ptr noundef %33)
  br label %36

34:                                               ; preds = %23
  %35 = load ptr, ptr %2, align 8, !tbaa !21
  call void @free(ptr noundef %35) #12
  br label %36

36:                                               ; preds = %34, %30
  store ptr null, ptr %2, align 8, !tbaa !21
  br label %37

37:                                               ; preds = %36, %18
  call void @llvm.lifetime.end.p0(i64 8, ptr %5) #12
  br label %38

38:                                               ; preds = %37
  br label %39

39:                                               ; preds = %38
  br label %11, !llvm.loop !34

40:                                               ; preds = %16
  call void @llvm.lifetime.end.p0(i64 8, ptr %3) #12
  br label %41

41:                                               ; preds = %40
  call void @llvm.lifetime.start.p0(i64 8, ptr %6) #12
  %42 = load ptr, ptr @alias_hash_table, align 8, !tbaa !31
  store ptr %42, ptr %6, align 8, !tbaa !21
  %43 = load ptr, ptr %6, align 8, !tbaa !21
  %44 = call i32 @pmix_obj_update(ptr noundef %43, i32 noundef -1)
  %45 = icmp eq i32 0, %44
  br i1 %45, label %46, label %60

46:                                               ; preds = %41
  %47 = load ptr, ptr %6, align 8, !tbaa !21
  call void @pmix_obj_run_destructors(ptr noundef %47)
  %48 = load ptr, ptr %6, align 8, !tbaa !21
  %49 = getelementptr inbounds nuw %struct.pmix_object_t, ptr %48, i32 0, i32 3
  %50 = getelementptr inbounds nuw %struct.pmix_tma, ptr %49, i32 0, i32 5
  %51 = load ptr, ptr %50, align 8, !tbaa !23
  %52 = icmp ne ptr null, %51
  br i1 %52, label %53, label %57

53:                                               ; preds = %46
  %54 = load ptr, ptr %6, align 8, !tbaa !21
  %55 = getelementptr inbounds nuw %struct.pmix_object_t, ptr %54, i32 0, i32 3
  %56 = load ptr, ptr @alias_hash_table, align 8, !tbaa !31
  call void @pmix_tma_free(ptr noundef %55, ptr noundef %56)
  br label %59

57:                                               ; preds = %46
  %58 = load ptr, ptr @alias_hash_table, align 8, !tbaa !31
  call void @free(ptr noundef %58) #12
  br label %59

59:                                               ; preds = %57, %53
  store ptr null, ptr @alias_hash_table, align 8, !tbaa !31
  br label %60

60:                                               ; preds = %59, %41
  call void @llvm.lifetime.end.p0(i64 8, ptr %6) #12
  br label %61

61:                                               ; preds = %60
  br label %62

62:                                               ; preds = %61
  store ptr null, ptr @alias_hash_table, align 8, !tbaa !31
  call void @llvm.lifetime.end.p0(i64 8, ptr %2) #12
  call void @llvm.lifetime.end.p0(i64 8, ptr %1) #12
  br label %63

63:                                               ; preds = %62, %9
  ret void
}