; Function Attrs: nounwind uwtable
define void @pmix_mca_base_alias_cleanup() local_unnamed_addr #0 {
  %1 = alloca ptr, align 8
  %2 = alloca ptr, align 8
  %3 = alloca i64, align 8
  %4 = alloca ptr, align 8
  %5 = load ptr, ptr @alias_hash_table, align 8, !tbaa !34
  %.not = icmp eq ptr %5, null
  br i1 %.not, label %68, label %6

6:                                                ; preds = %0
  call void @llvm.lifetime.start.p0(i64 8, ptr nonnull %1) #17
  call void @llvm.lifetime.start.p0(i64 8, ptr nonnull %2) #17
  call void @llvm.lifetime.start.p0(i64 8, ptr nonnull %3) #17
  call void @llvm.lifetime.start.p0(i64 8, ptr nonnull %4) #17
  store ptr null, ptr %4, align 8, !tbaa !18
  %7 = call i32 @pmix_hash_table_get_next_key_ptr(ptr noundef nonnull %5, ptr noundef nonnull %1, ptr noundef nonnull %3, ptr noundef nonnull %2, ptr noundef null, ptr noundef nonnull %4) #17
  %8 = icmp eq i32 %7, 0
  br i1 %8, label %.lr.ph, label %._crit_edge

._crit_edge:                                      ; preds = %46, %6
  call void @llvm.lifetime.end.p0(i64 8, ptr nonnull %4) #17
  call void @llvm.lifetime.end.p0(i64 8, ptr nonnull %3) #17
  %9 = load ptr, ptr @alias_hash_table, align 8, !tbaa !34
  %10 = call i32 @pthread_mutex_lock(ptr noundef %9) #17
  %11 = icmp eq i32 %10, 35
  br i1 %11, label %12, label %pmix_obj_update.exit10

12:                                               ; preds = %._crit_edge
  %13 = tail call ptr @__errno_location() #18
  store i32 35, ptr %13, align 4, !tbaa !3
  call void @perror(ptr noundef nonnull @.str.2) #19
  call void @abort() #20
  unreachable

pmix_obj_update.exit10:                           ; preds = %._crit_edge
  %14 = getelementptr inbounds nuw i8, ptr %9, i64 48
  %15 = load i32, ptr %14, align 8, !tbaa !16
  %16 = add nsw i32 %15, -1
  store i32 %16, ptr %14, align 8, !tbaa !16
  %17 = call i32 @pthread_mutex_unlock(ptr noundef %9) #17
  %18 = icmp eq i32 %16, 0
  br i1 %18, label %51, label %67

.lr.ph:                                           ; preds = %6, %46
  %19 = load ptr, ptr %2, align 8, !tbaa !36
  %20 = call i32 @pthread_mutex_lock(ptr noundef %19) #17
  %21 = icmp eq i32 %20, 35
  br i1 %21, label %22, label %pmix_obj_update.exit

22:                                               ; preds = %.lr.ph
  %23 = tail call ptr @__errno_location() #18
  store i32 35, ptr %23, align 4, !tbaa !3
  call void @perror(ptr noundef nonnull @.str.2) #19
  call void @abort() #20
  unreachable

pmix_obj_update.exit:                             ; preds = %.lr.ph
  %24 = getelementptr inbounds nuw i8, ptr %19, i64 48
  %25 = load i32, ptr %24, align 8, !tbaa !16
  %26 = add nsw i32 %25, -1
  store i32 %26, ptr %24, align 8, !tbaa !16
  %27 = call i32 @pthread_mutex_unlock(ptr noundef %19) #17
  %28 = icmp eq i32 %26, 0
  br i1 %28, label %29, label %46

29:                                               ; preds = %pmix_obj_update.exit
  %30 = getelementptr inbounds nuw i8, ptr %19, i64 40
  %31 = load ptr, ptr %30, align 8, !tbaa !13
  %32 = getelementptr inbounds nuw i8, ptr %31, i64 48
  %33 = load ptr, ptr %32, align 8, !tbaa !28
  %34 = load ptr, ptr %33, align 8, !tbaa !18
  %.not6.i = icmp eq ptr %34, null
  br i1 %.not6.i, label %pmix_obj_run_destructors.exit, label %.lr.ph.i

.lr.ph.i:                                         ; preds = %29, %.lr.ph.i
  %35 = phi ptr [ %37, %.lr.ph.i ], [ %34, %29 ]
  %.07.i = phi ptr [ %36, %.lr.ph.i ], [ %33, %29 ]
  call void %35(ptr noundef %19) #17
  %36 = getelementptr inbounds nuw i8, ptr %.07.i, i64 8
  %37 = load ptr, ptr %36, align 8, !tbaa !18
  %.not.i = icmp eq ptr %37, null
  br i1 %.not.i, label %pmix_obj_run_destructors.exit, label %.lr.ph.i, !llvm.loop !29

pmix_obj_run_destructors.exit:                    ; preds = %.lr.ph.i, %29
  %38 = getelementptr inbounds nuw i8, ptr %19, i64 96
  %39 = load ptr, ptr %38, align 8, !tbaa !30
  %.not9 = icmp eq ptr %39, null
  br i1 %.not9, label %43, label %40

40:                                               ; preds = %pmix_obj_run_destructors.exit
  %41 = getelementptr inbounds nuw i8, ptr %19, i64 56
  %42 = load ptr, ptr %2, align 8, !tbaa !36
  call void %39(ptr noundef nonnull %41, ptr noundef %42) #17
  br label %45

43:                                               ; preds = %pmix_obj_run_destructors.exit
  %44 = load ptr, ptr %2, align 8, !tbaa !36
  call void @free(ptr noundef %44) #17
  br label %45

45:                                               ; preds = %43, %40
  store ptr null, ptr %2, align 8, !tbaa !36
  br label %46

46:                                               ; preds = %45, %pmix_obj_update.exit
  %47 = load ptr, ptr @alias_hash_table, align 8, !tbaa !34
  %48 = load ptr, ptr %4, align 8, !tbaa !18
  %49 = call i32 @pmix_hash_table_get_next_key_ptr(ptr noundef %47, ptr noundef nonnull %1, ptr noundef nonnull %3, ptr noundef nonnull %2, ptr noundef %48, ptr noundef nonnull %4) #17
  %50 = icmp eq i32 %49, 0
  br i1 %50, label %.lr.ph, label %._crit_edge, !llvm.loop !38

51:                                               ; preds = %pmix_obj_update.exit10
  %52 = getelementptr inbounds nuw i8, ptr %9, i64 40
  %53 = load ptr, ptr %52, align 8, !tbaa !13
  %54 = getelementptr inbounds nuw i8, ptr %53, i64 48
  %55 = load ptr, ptr %54, align 8, !tbaa !28
  %56 = load ptr, ptr %55, align 8, !tbaa !18
  %.not6.i12 = icmp eq ptr %56, null
  br i1 %.not6.i12, label %pmix_obj_run_destructors.exit16, label %.lr.ph.i13

.lr.ph.i13:                                       ; preds = %51, %.lr.ph.i13
  %57 = phi ptr [ %59, %.lr.ph.i13 ], [ %56, %51 ]
  %.07.i14 = phi ptr [ %58, %.lr.ph.i13 ], [ %55, %51 ]
  call void %57(ptr noundef %9) #17
  %58 = getelementptr inbounds nuw i8, ptr %.07.i14, i64 8
  %59 = load ptr, ptr %58, align 8, !tbaa !18
  %.not.i15 = icmp eq ptr %59, null
  br i1 %.not.i15, label %pmix_obj_run_destructors.exit16, label %.lr.ph.i13, !llvm.loop !29

pmix_obj_run_destructors.exit16:                  ; preds = %.lr.ph.i13, %51
  %60 = getelementptr inbounds nuw i8, ptr %9, i64 96
  %61 = load ptr, ptr %60, align 8, !tbaa !30
  %.not8 = icmp eq ptr %61, null
  br i1 %.not8, label %65, label %62

62:                                               ; preds = %pmix_obj_run_destructors.exit16
  %63 = getelementptr inbounds nuw i8, ptr %9, i64 56
  %64 = load ptr, ptr @alias_hash_table, align 8, !tbaa !34
  call void %61(ptr noundef nonnull %63, ptr noundef %64) #17
  br label %67

65:                                               ; preds = %pmix_obj_run_destructors.exit16
  %66 = load ptr, ptr @alias_hash_table, align 8, !tbaa !34
  call void @free(ptr noundef %66) #17
  br label %67

67:                                               ; preds = %62, %65, %pmix_obj_update.exit10
  store ptr null, ptr @alias_hash_table, align 8, !tbaa !34
  call void @llvm.lifetime.end.p0(i64 8, ptr nonnull %2) #17
  call void @llvm.lifetime.end.p0(i64 8, ptr nonnull %1) #17
  br label %68

68:                                               ; preds = %0, %67
  ret void
}